target datalayout = "e-m:e-p270:32:32-p271:32:32-p272:64:64-i64:64-i128:128-f80:128-n8:16:32:64-S128"
target triple = "x86_64-pc-linux-gnu"

%struct.strbuf = type { i64, i64, ptr }
%struct.object_id = type { [32 x i8], i32 }
%struct.command = type { ptr, ptr, ptr, ptr, i8, i32, %struct.object_id, %struct.object_id, [0 x i8] }

@the_repository = external global ptr, align 8
@strbuf_slopbuf = external global [0 x i8], align 1
@.str.115 = private unnamed_addr constant [11 x i8] c"./strbuf.h\00", align 1
@.str.116 = private unnamed_addr constant [30 x i8] c"strbuf_setlen() beyond buffer\00", align 1
@.str.123 = private unnamed_addr constant [3 x i8] c"%s\00", align 1
@transaction = internal global ptr null, align 8
@.str.151 = private unnamed_addr constant [28 x i8] c"transaction failed to start\00", align 1
@.str.180 = private unnamed_addr constant [21 x i8] c"failed to update ref\00", align 1
@__const.execute_commands_non_atomic.err = private unnamed_addr constant %struct.strbuf { i64 0, i64 0, ptr @strbuf_slopbuf }, align 8

; Function Attrs: inlinehint nounwind uwtable
define internal void @strbuf_setlen(ptr noundef %0, i64 noundef %1) #5 {
  %3 = alloca ptr, align 8
  %4 = alloca i64, align 8
  store ptr %0, ptr %3, align 8, !tbaa !169
  store i64 %1, ptr %4, align 8, !tbaa !53
  %5 = load i64, ptr %4, align 8, !tbaa !53
  %6 = load ptr, ptr %3, align 8, !tbaa !169
  %7 = getelementptr inbounds nuw %struct.strbuf, ptr %6, i32 0, i32 0
  %8 = load i64, ptr %7, align 8, !tbaa !214
  %9 = icmp ne i64 %8, 0
  br i1 %9, label %10, label %15

10:                                               ; preds = %2
  %11 = load ptr, ptr %3, align 8, !tbaa !169
  %12 = getelementptr inbounds nuw %struct.strbuf, ptr %11, i32 0, i32 0
  %13 = load i64, ptr %12, align 8, !tbaa !214
  %14 = sub i64 %13, 1
  br label %16

15:                                               ; preds = %2
  br label %16

16:                                               ; preds = %15, %10
  %17 = phi i64 [ %14, %10 ], [ 0, %15 ]
  %18 = icmp ugt i64 %5, %17
  br i1 %18, label %19, label %20

19:                                               ; preds = %16
  call void (ptr, i32, ptr, ...) @BUG_fl(ptr noundef @.str.115, i32 noundef 167, ptr noundef @.str.116) #16
  unreachable

20:                                               ; preds = %16
  %21 = load i64, ptr %4, align 8, !tbaa !53
  %22 = load ptr, ptr %3, align 8, !tbaa !169
  %23 = getelementptr inbounds nuw %struct.strbuf, ptr %22, i32 0, i32 1
  store i64 %21, ptr %23, align 8, !tbaa !51
  %24 = load ptr, ptr %3, align 8, !tbaa !169
  %25 = getelementptr inbounds nuw %struct.strbuf, ptr %24, i32 0, i32 2
  %26 = load ptr, ptr %25, align 8, !tbaa !54
  %27 = icmp ne ptr %26, @strbuf_slopbuf
  br i1 %27, label %28, label %34

28:                                               ; preds = %20
  %29 = load ptr, ptr %3, align 8, !tbaa !169
  %30 = getelementptr inbounds nuw %struct.strbuf, ptr %29, i32 0, i32 2
  %31 = load ptr, ptr %30, align 8, !tbaa !54
  %32 = load i64, ptr %4, align 8, !tbaa !53
  %33 = getelementptr inbounds nuw i8, ptr %31, i64 %32
  store i8 0, ptr %33, align 1, !tbaa !44
  br label %35

34:                                               ; preds = %20
  br label %35

35:                                               ; preds = %34, %28
  ret void
}

; Function Attrs: nounwind uwtable
define internal i32 @should_process_cmd(ptr noundef %0) #0 {
  %2 = alloca ptr, align 8
  store ptr %0, ptr %2, align 8, !tbaa !29
  %3 = load ptr, ptr %2, align 8, !tbaa !29
  %4 = getelementptr inbounds nuw %struct.command, ptr %3, i32 0, i32 1
  %5 = load ptr, ptr %4, align 8, !tbaa !11
  %6 = icmp ne ptr %5, null
  br i1 %6, label %15, label %7

7:                                                ; preds = %1
  %8 = load ptr, ptr %2, align 8, !tbaa !29
  %9 = getelementptr inbounds nuw %struct.command, ptr %8, i32 0, i32 4
  %10 = load i8, ptr %9, align 8
  %11 = and i8 %10, 1
  %12 = zext i8 %11 to i32
  %13 = icmp ne i32 %12, 0
  %14 = xor i1 %13, true
  br label %15

15:                                               ; preds = %7, %1
  %16 = phi i1 [ false, %1 ], [ %14, %7 ]
  %17 = zext i1 %16 to i32
  ret i32 %17
}

; Function Attrs: nounwind uwtable
define internal void @execute_commands_non_atomic(ptr noundef %0, ptr noundef %1) #0 {
  %3 = alloca ptr, align 8
  %4 = alloca ptr, align 8
  %5 = alloca ptr, align 8
  %6 = alloca %struct.strbuf, align 8
  store ptr %0, ptr %3, align 8, !tbaa !29
  store ptr %1, ptr %4, align 8, !tbaa !100
  call void @llvm.lifetime.start.p0(i64 8, ptr %5) #15
  call void @llvm.lifetime.start.p0(i64 24, ptr %6) #15
  call void @llvm.memcpy.p0.p0.i64(ptr align 8 %6, ptr align 8 @__const.execute_commands_non_atomic.err, i64 24, i1 false)
  %7 = load ptr, ptr %3, align 8, !tbaa !29
  store ptr %7, ptr %5, align 8, !tbaa !29
  br label %8

8:                                                ; preds = %56, %2
  %9 = load ptr, ptr %5, align 8, !tbaa !29
  %10 = icmp ne ptr %9, null
  br i1 %10, label %11, label %60

11:                                               ; preds = %8
  %12 = load ptr, ptr %5, align 8, !tbaa !29
  %13 = call i32 @should_process_cmd(ptr noundef %12)
  %14 = icmp ne i32 %13, 0
  br i1 %14, label %15, label %23

15:                                               ; preds = %11
  %16 = load ptr, ptr %5, align 8, !tbaa !29
  %17 = getelementptr inbounds nuw %struct.command, ptr %16, i32 0, i32 4
  %18 = load i8, ptr %17, align 8
  %19 = lshr i8 %18, 2
  %20 = and i8 %19, 3
  %21 = zext i8 %20 to i32
  %22 = icmp ne i32 %21, 0
  br i1 %22, label %23, label %24

23:                                               ; preds = %15, %11
  br label %56

24:                                               ; preds = %15
  %25 = load ptr, ptr @the_repository, align 8, !tbaa !13
  %26 = call ptr @get_main_ref_store(ptr noundef %25)
  %27 = call ptr @ref_store_transaction_begin(ptr noundef %26, i32 noundef 0, ptr noundef %6)
  store ptr %27, ptr @transaction, align 8, !tbaa !208
  %28 = load ptr, ptr @transaction, align 8, !tbaa !208
  %29 = icmp ne ptr %28, null
  br i1 %29, label %35, label %30

30:                                               ; preds = %24
  %31 = getelementptr inbounds nuw %struct.strbuf, ptr %6, i32 0, i32 2
  %32 = load ptr, ptr %31, align 8, !tbaa !54
  call void (ptr, ...) @rp_error(ptr noundef @.str.123, ptr noundef %32)
  call void @strbuf_setlen(ptr noundef %6, i64 noundef 0)
  %33 = load ptr, ptr %5, align 8, !tbaa !29
  %34 = getelementptr inbounds nuw %struct.command, ptr %33, i32 0, i32 1
  store ptr @.str.151, ptr %34, align 8, !tbaa !11
  br label %56

35:                                               ; preds = %24
  %36 = load ptr, ptr %5, align 8, !tbaa !29
  %37 = load ptr, ptr %4, align 8, !tbaa !100
  %38 = call ptr @update(ptr noundef %36, ptr noundef %37)
  %39 = load ptr, ptr %5, align 8, !tbaa !29
  %40 = getelementptr inbounds nuw %struct.command, ptr %39, i32 0, i32 1
  store ptr %38, ptr %40, align 8, !tbaa !11
  %41 = load ptr, ptr %5, align 8, !tbaa !29
  %42 = getelementptr inbounds nuw %struct.command, ptr %41, i32 0, i32 1
  %43 = load ptr, ptr %42, align 8, !tbaa !11
  %44 = icmp ne ptr %43, null
  br i1 %44, label %54, label %45

45:                                               ; preds = %35
  %46 = load ptr, ptr @transaction, align 8, !tbaa !208
  %47 = call i32 @ref_transaction_commit(ptr noundef %46, ptr noundef %6)
  %48 = icmp ne i32 %47, 0
  br i1 %48, label %49, label %54

49:                                               ; preds = %45
  %50 = getelementptr inbounds nuw %struct.strbuf, ptr %6, i32 0, i32 2
  %51 = load ptr, ptr %50, align 8, !tbaa !54
  call void (ptr, ...) @rp_error(ptr noundef @.str.123, ptr noundef %51)
  call void @strbuf_setlen(ptr noundef %6, i64 noundef 0)
  %52 = load ptr, ptr %5, align 8, !tbaa !29
  %53 = getelementptr inbounds nuw %struct.command, ptr %52, i32 0, i32 1
  store ptr @.str.180, ptr %53, align 8, !tbaa !11
  br label %54

54:                                               ; preds = %49, %45, %35
  %55 = load ptr, ptr @transaction, align 8, !tbaa !208
  call void @ref_transaction_free(ptr noundef %55)
  br label %56

56:                                               ; preds = %54, %30, %23
  %57 = load ptr, ptr %5, align 8, !tbaa !29
  %58 = getelementptr inbounds nuw %struct.command, ptr %57, i32 0, i32 0
  %59 = load ptr, ptr %58, align 8, !tbaa !29
  store ptr %59, ptr %5, align 8, !tbaa !29
  br label %8, !llvm.loop !212

60:                                               ; preds = %8
  call void @strbuf_release(ptr noundef %6)
  call void @llvm.lifetime.end.p0(i64 24, ptr %6) #15
  call void @llvm.lifetime.end.p0(i64 8, ptr %5) #15
  ret void
}