; Function Attrs: nounwind uwtable
define internal fastcc void @execute_commands_non_atomic(ptr noundef nonnull %0, ptr noundef nonnull %1) unnamed_addr #0 {
  %3 = alloca %struct.strbuf, align 8
  call void @llvm.lifetime.start.p0(i64 24, ptr nonnull %3) #21
  call void @llvm.memcpy.p0.p0.i64(ptr noundef nonnull align 8 dereferenceable(24) %3, ptr noundef nonnull align 8 dereferenceable(24) @__const.report.buf, i64 24, i1 false)
  %4 = getelementptr inbounds nuw i8, ptr %3, i64 16
  %5 = getelementptr inbounds nuw i8, ptr %3, i64 8
  br label %6

6:                                                ; preds = %2, %should_process_cmd.exit.thread
  %.020 = phi ptr [ %0, %2 ], [ %31, %should_process_cmd.exit.thread ]
  %7 = getelementptr inbounds nuw i8, ptr %.020, i64 8
  %8 = load ptr, ptr %7, align 8, !tbaa !21
  %.not.i = icmp eq ptr %8, null
  br i1 %.not.i, label %should_process_cmd.exit, label %should_process_cmd.exit.thread

should_process_cmd.exit:                          ; preds = %6
  %9 = getelementptr inbounds nuw i8, ptr %.020, i64 32
  %10 = load i8, ptr %9, align 8
  %11 = and i8 %10, 13
  %or.cond = icmp eq i8 %11, 0
  br i1 %or.cond, label %12, label %should_process_cmd.exit.thread

12:                                               ; preds = %should_process_cmd.exit
  %13 = load ptr, ptr @the_repository, align 8, !tbaa !22
  %14 = call ptr @get_main_ref_store(ptr noundef %13) #21
  %15 = call ptr @ref_store_transaction_begin(ptr noundef %14, i32 noundef 0, ptr noundef nonnull %3) #21
  store ptr %15, ptr @transaction, align 8, !tbaa !191
  %.not13 = icmp eq ptr %15, null
  br i1 %.not13, label %16, label %20

16:                                               ; preds = %12
  %17 = load ptr, ptr %4, align 8, !tbaa !57
  call void (ptr, ...) @rp_error(ptr noundef nonnull @.str.123, ptr noundef %17)
  store i64 0, ptr %5, align 8, !tbaa !56
  %18 = load ptr, ptr %4, align 8, !tbaa !57
  %.not9.i = icmp eq ptr %18, @strbuf_slopbuf
  br i1 %.not9.i, label %strbuf_setlen.exit, label %19

19:                                               ; preds = %16
  store i8 0, ptr %18, align 1, !tbaa !60
  br label %strbuf_setlen.exit

strbuf_setlen.exit:                               ; preds = %16, %19
  store ptr @.str.151, ptr %7, align 8, !tbaa !21
  br label %should_process_cmd.exit.thread

20:                                               ; preds = %12
  %21 = call fastcc ptr @update(ptr noundef %.020, ptr noundef %1)
  store ptr %21, ptr %7, align 8, !tbaa !21
  %.not14 = icmp eq ptr %21, null
  br i1 %.not14, label %22, label %29

22:                                               ; preds = %20
  %23 = load ptr, ptr @transaction, align 8, !tbaa !191
  %24 = call i32 @ref_transaction_commit(ptr noundef %23, ptr noundef nonnull %3) #21
  %.not15 = icmp eq i32 %24, 0
  br i1 %.not15, label %29, label %25

25:                                               ; preds = %22
  %26 = load ptr, ptr %4, align 8, !tbaa !57
  call void (ptr, ...) @rp_error(ptr noundef nonnull @.str.123, ptr noundef %26)
  store i64 0, ptr %5, align 8, !tbaa !56
  %27 = load ptr, ptr %4, align 8, !tbaa !57
  %.not9.i17 = icmp eq ptr %27, @strbuf_slopbuf
  br i1 %.not9.i17, label %strbuf_setlen.exit18, label %28

28:                                               ; preds = %25
  store i8 0, ptr %27, align 1, !tbaa !60
  br label %strbuf_setlen.exit18

strbuf_setlen.exit18:                             ; preds = %25, %28
  store ptr @.str.180, ptr %7, align 8, !tbaa !21
  br label %29

29:                                               ; preds = %strbuf_setlen.exit18, %22, %20
  %30 = load ptr, ptr @transaction, align 8, !tbaa !191
  call void @ref_transaction_free(ptr noundef %30) #21
  br label %should_process_cmd.exit.thread

should_process_cmd.exit.thread:                   ; preds = %6, %should_process_cmd.exit, %29, %strbuf_setlen.exit
  %31 = load ptr, ptr %.020, align 8, !tbaa !26
  %.not = icmp eq ptr %31, null
  br i1 %.not, label %32, label %6, !llvm.loop !195

32:                                               ; preds = %should_process_cmd.exit.thread
  call void @strbuf_release(ptr noundef nonnull %3) #21
  call void @llvm.lifetime.end.p0(i64 24, ptr nonnull %3) #21
  ret void
}